target datalayout = "e-m:e-p270:32:32-p271:32:32-p272:64:64-i64:64-i128:128-f80:128-n8:16:32:64-S128"
target triple = "x86_64-pc-linux-gnu"

%struct.H5O_loc_t = type { ptr, i64, i8 }
%struct.H5A_t = type { %struct.H5O_shared_t, %struct.H5O_loc_t, i8, %struct.H5G_name_t, ptr }
%struct.H5O_shared_t = type { i32, ptr, i32, %union.anon }
%union.anon = type { %struct.H5O_mesg_loc_t }
%struct.H5O_mesg_loc_t = type { i32, i64 }
%struct.H5G_name_t = type { ptr, ptr, i32 }
%struct.H5A_shared_t = type { i8, ptr, i32, ptr, i64, ptr, i64, ptr, i64, i32, i32 }
%struct.H5O_copy_t = type { i8, i8, i8, i8, i8, i8, i8, ptr, i32, i32, ptr, ptr, i8, ptr, ptr, ptr, ptr, ptr, i64 }

@.str.3 = private unnamed_addr constant [100 x i8] c"generated/home/dtcxzyw/WorkSpace/Projects/compilers/llvm-opt-benchmark/bench/hdf5/hdf5/src/H5Aint.c\00", align 1
@H5E_ATTR_g = external global i64, align 8
@H5E_CANTCOPY_g = external global i64, align 8
@H5E_OHDR_g = external global i64, align 8
@H5E_WRITEERROR_g = external global i64, align 8
@.str.75 = private unnamed_addr constant [31 x i8] c"can't share attribute datatype\00", align 1
@.str.76 = private unnamed_addr constant [32 x i8] c"can't share attribute dataspace\00", align 1
@__func__.H5A__attr_post_copy_file = private unnamed_addr constant [25 x i8] c"H5A__attr_post_copy_file\00", align 1
@.str.88 = private unnamed_addr constant [22 x i8] c"unable to copy object\00", align 1
@.str.89 = private unnamed_addr constant [35 x i8] c"unable to copy reference attribute\00", align 1

; Function Attrs: nounwind uwtable
define i32 @H5A__attr_post_copy_file(ptr noundef %0, ptr noundef %1, ptr noundef %2, ptr noundef %3, ptr noundef %4) #0 {
  %6 = alloca ptr, align 8
  %7 = alloca ptr, align 8
  %8 = alloca ptr, align 8
  %9 = alloca ptr, align 8
  %10 = alloca ptr, align 8
  %11 = alloca ptr, align 8
  %12 = alloca ptr, align 8
  %13 = alloca i32, align 4
  %14 = alloca i8, align 1
  %15 = alloca ptr, align 8
  %16 = alloca ptr, align 8
  store ptr %0, ptr %6, align 8
  store ptr %1, ptr %7, align 8
  store ptr %2, ptr %8, align 8
  store ptr %3, ptr %9, align 8
  store ptr %4, ptr %10, align 8
  store i32 0, ptr %13, align 4
  store i8 0, ptr %14, align 1
  %17 = load ptr, ptr %6, align 8
  %18 = getelementptr inbounds %struct.H5O_loc_t, ptr %17, i32 0, i32 0
  %19 = load ptr, ptr %18, align 8
  store ptr %19, ptr %11, align 8
  %20 = load ptr, ptr %8, align 8
  %21 = getelementptr inbounds %struct.H5O_loc_t, ptr %20, i32 0, i32 0
  %22 = load ptr, ptr %21, align 8
  store ptr %22, ptr %12, align 8
  %23 = load ptr, ptr %7, align 8
  %24 = getelementptr inbounds %struct.H5A_t, ptr %23, i32 0, i32 4
  %25 = load ptr, ptr %24, align 8
  %26 = getelementptr inbounds %struct.H5A_shared_t, ptr %25, i32 0, i32 3
  %27 = load ptr, ptr %26, align 8
  %28 = call i32 @H5T_is_named(ptr noundef %27)
  %29 = icmp ne i32 %28, 0
  br i1 %29, label %30, label %75

30:                                               ; preds = %5
  %31 = load ptr, ptr %7, align 8
  %32 = getelementptr inbounds %struct.H5A_t, ptr %31, i32 0, i32 4
  %33 = load ptr, ptr %32, align 8
  %34 = getelementptr inbounds %struct.H5A_shared_t, ptr %33, i32 0, i32 3
  %35 = load ptr, ptr %34, align 8
  %36 = call ptr @H5T_oloc(ptr noundef %35)
  store ptr %36, ptr %15, align 8
  %37 = load ptr, ptr %9, align 8
  %38 = getelementptr inbounds %struct.H5A_t, ptr %37, i32 0, i32 4
  %39 = load ptr, ptr %38, align 8
  %40 = getelementptr inbounds %struct.H5A_shared_t, ptr %39, i32 0, i32 3
  %41 = load ptr, ptr %40, align 8
  %42 = call ptr @H5T_oloc(ptr noundef %41)
  store ptr %42, ptr %16, align 8
  %43 = load ptr, ptr %16, align 8
  %44 = call i32 @H5O_loc_reset(ptr noundef %43)
  %45 = load ptr, ptr %12, align 8
  %46 = load ptr, ptr %16, align 8
  %47 = getelementptr inbounds %struct.H5O_loc_t, ptr %46, i32 0, i32 0
  store ptr %45, ptr %47, align 8
  %48 = load ptr, ptr %15, align 8
  %49 = load ptr, ptr %16, align 8
  %50 = load ptr, ptr %10, align 8
  %51 = call i32 @H5O_copy_header_map(ptr noundef %48, ptr noundef %49, ptr noundef %50, i1 noundef zeroext false, ptr noundef null, ptr noundef null)
  %52 = icmp slt i32 %51, 0
  br i1 %52, label %53, label %68

53:                                               ; preds = %30
  br label %54

54:                                               ; preds = %53
  br label %55

55:                                               ; preds = %54
  br label %56

56:                                               ; preds = %55
  %57 = load i64, ptr @H5E_OHDR_g, align 8
  %58 = load i64, ptr @H5E_CANTCOPY_g, align 8
  %59 = call i32 (ptr, ptr, i32, i64, i64, ptr, ...) @H5E_printf_stack(ptr noundef @.str.3, ptr noundef @__func__.H5A__attr_post_copy_file, i32 noundef 2341, i64 noundef %57, i64 noundef %58, ptr noundef @.str.88)
  br label %60

60:                                               ; preds = %56
  store i8 1, ptr %14, align 1
  %61 = load i8, ptr %14, align 1
  %62 = trunc i8 %61 to i1
  %63 = zext i1 %62 to i8
  store i8 %63, ptr %14, align 1
  br label %64

64:                                               ; preds = %60
  br label %65

65:                                               ; preds = %64
  store i32 -1, ptr %13, align 4
  br label %198

66:                                               ; No predecessors!
  br label %67

67:                                               ; preds = %66
  br label %68

68:                                               ; preds = %67, %30
  %69 = load ptr, ptr %9, align 8
  %70 = getelementptr inbounds %struct.H5A_t, ptr %69, i32 0, i32 4
  %71 = load ptr, ptr %70, align 8
  %72 = getelementptr inbounds %struct.H5A_shared_t, ptr %71, i32 0, i32 3
  %73 = load ptr, ptr %72, align 8
  %74 = call i32 @H5T_update_shared(ptr noundef %73)
  br label %75

75:                                               ; preds = %68, %5
  %76 = load ptr, ptr %12, align 8
  %77 = load ptr, ptr %9, align 8
  %78 = getelementptr inbounds %struct.H5A_t, ptr %77, i32 0, i32 4
  %79 = load ptr, ptr %78, align 8
  %80 = getelementptr inbounds %struct.H5A_shared_t, ptr %79, i32 0, i32 3
  %81 = load ptr, ptr %80, align 8
  %82 = call i32 @H5SM_try_share(ptr noundef %76, ptr noundef null, i32 noundef 2, i32 noundef 3, ptr noundef %81, ptr noundef null)
  %83 = icmp slt i32 %82, 0
  br i1 %83, label %84, label %99

84:                                               ; preds = %75
  br label %85

85:                                               ; preds = %84
  br label %86

86:                                               ; preds = %85
  br label %87

87:                                               ; preds = %86
  %88 = load i64, ptr @H5E_OHDR_g, align 8
  %89 = load i64, ptr @H5E_WRITEERROR_g, align 8
  %90 = call i32 (ptr, ptr, i32, i64, i64, ptr, ...) @H5E_printf_stack(ptr noundef @.str.3, ptr noundef @__func__.H5A__attr_post_copy_file, i32 noundef 2351, i64 noundef %88, i64 noundef %89, ptr noundef @.str.75)
  br label %91

91:                                               ; preds = %87
  store i8 1, ptr %14, align 1
  %92 = load i8, ptr %14, align 1
  %93 = trunc i8 %92 to i1
  %94 = zext i1 %93 to i8
  store i8 %94, ptr %14, align 1
  br label %95

95:                                               ; preds = %91
  br label %96

96:                                               ; preds = %95
  store i32 -1, ptr %13, align 4
  br label %198

97:                                               ; No predecessors!
  br label %98

98:                                               ; preds = %97
  br label %99

99:                                               ; preds = %98, %75
  %100 = load ptr, ptr %12, align 8
  %101 = load ptr, ptr %9, align 8
  %102 = getelementptr inbounds %struct.H5A_t, ptr %101, i32 0, i32 4
  %103 = load ptr, ptr %102, align 8
  %104 = getelementptr inbounds %struct.H5A_shared_t, ptr %103, i32 0, i32 5
  %105 = load ptr, ptr %104, align 8
  %106 = call i32 @H5SM_try_share(ptr noundef %100, ptr noundef null, i32 noundef 2, i32 noundef 1, ptr noundef %105, ptr noundef null)
  %107 = icmp slt i32 %106, 0
  br i1 %107, label %108, label %123

108:                                              ; preds = %99
  br label %109

109:                                              ; preds = %108
  br label %110

110:                                              ; preds = %109
  br label %111

111:                                              ; preds = %110
  %112 = load i64, ptr @H5E_OHDR_g, align 8
  %113 = load i64, ptr @H5E_WRITEERROR_g, align 8
  %114 = call i32 (ptr, ptr, i32, i64, i64, ptr, ...) @H5E_printf_stack(ptr noundef @.str.3, ptr noundef @__func__.H5A__attr_post_copy_file, i32 noundef 2353, i64 noundef %112, i64 noundef %113, ptr noundef @.str.76)
  br label %115

115:                                              ; preds = %111
  store i8 1, ptr %14, align 1
  %116 = load i8, ptr %14, align 1
  %117 = trunc i8 %116 to i1
  %118 = zext i1 %117 to i8
  store i8 %118, ptr %14, align 1
  br label %119

119:                                              ; preds = %115
  br label %120

120:                                              ; preds = %119
  store i32 -1, ptr %13, align 4
  br label %198

121:                                              ; No predecessors!
  br label %122

122:                                              ; preds = %121
  br label %123

123:                                              ; preds = %122, %99
  %124 = load ptr, ptr %9, align 8
  %125 = getelementptr inbounds %struct.H5A_t, ptr %124, i32 0, i32 4
  %126 = load ptr, ptr %125, align 8
  %127 = getelementptr inbounds %struct.H5A_shared_t, ptr %126, i32 0, i32 7
  %128 = load ptr, ptr %127, align 8
  %129 = icmp ne ptr null, %128
  br i1 %129, label %130, label %197

130:                                              ; preds = %123
  %131 = load ptr, ptr %9, align 8
  %132 = getelementptr inbounds %struct.H5A_t, ptr %131, i32 0, i32 4
  %133 = load ptr, ptr %132, align 8
  %134 = getelementptr inbounds %struct.H5A_shared_t, ptr %133, i32 0, i32 3
  %135 = load ptr, ptr %134, align 8
  %136 = call i32 @H5T_get_class(ptr noundef %135, i32 noundef 0)
  %137 = icmp eq i32 %136, 7
  br i1 %137, label %138, label %197

138:                                              ; preds = %130
  %139 = load ptr, ptr %10, align 8
  %140 = getelementptr inbounds %struct.H5O_copy_t, ptr %139, i32 0, i32 3
  %141 = load i8, ptr %140, align 1
  %142 = trunc i8 %141 to i1
  br i1 %142, label %143, label %185

143:                                              ; preds = %138
  %144 = load ptr, ptr %11, align 8
  %145 = load ptr, ptr %7, align 8
  %146 = getelementptr inbounds %struct.H5A_t, ptr %145, i32 0, i32 4
  %147 = load ptr, ptr %146, align 8
  %148 = getelementptr inbounds %struct.H5A_shared_t, ptr %147, i32 0, i32 3
  %149 = load ptr, ptr %148, align 8
  %150 = load ptr, ptr %7, align 8
  %151 = getelementptr inbounds %struct.H5A_t, ptr %150, i32 0, i32 4
  %152 = load ptr, ptr %151, align 8
  %153 = getelementptr inbounds %struct.H5A_shared_t, ptr %152, i32 0, i32 7
  %154 = load ptr, ptr %153, align 8
  %155 = load ptr, ptr %7, align 8
  %156 = getelementptr inbounds %struct.H5A_t, ptr %155, i32 0, i32 4
  %157 = load ptr, ptr %156, align 8
  %158 = getelementptr inbounds %struct.H5A_shared_t, ptr %157, i32 0, i32 8
  %159 = load i64, ptr %158, align 8
  %160 = load ptr, ptr %12, align 8
  %161 = load ptr, ptr %9, align 8
  %162 = getelementptr inbounds %struct.H5A_t, ptr %161, i32 0, i32 4
  %163 = load ptr, ptr %162, align 8
  %164 = getelementptr inbounds %struct.H5A_shared_t, ptr %163, i32 0, i32 7
  %165 = load ptr, ptr %164, align 8
  %166 = load ptr, ptr %10, align 8
  %167 = call i32 @H5O_copy_expand_ref(ptr noundef %144, ptr noundef %149, ptr noundef %154, i64 noundef %159, ptr noundef %160, ptr noundef %165, ptr noundef %166)
  %168 = icmp slt i32 %167, 0
  br i1 %168, label %169, label %184

169:                                              ; preds = %143
  br label %170

170:                                              ; preds = %169
  br label %171

171:                                              ; preds = %170
  br label %172

172:                                              ; preds = %171
  %173 = load i64, ptr @H5E_ATTR_g, align 8
  %174 = load i64, ptr @H5E_CANTCOPY_g, align 8
  %175 = call i32 (ptr, ptr, i32, i64, i64, ptr, ...) @H5E_printf_stack(ptr noundef @.str.3, ptr noundef @__func__.H5A__attr_post_copy_file, i32 noundef 2370, i64 noundef %173, i64 noundef %174, ptr noundef @.str.89)
  br label %176

176:                                              ; preds = %172
  store i8 1, ptr %14, align 1
  %177 = load i8, ptr %14, align 1
  %178 = trunc i8 %177 to i1
  %179 = zext i1 %178 to i8
  store i8 %179, ptr %14, align 1
  br label %180

180:                                              ; preds = %176
  br label %181

181:                                              ; preds = %180
  store i32 -1, ptr %13, align 4
  br label %198

182:                                              ; No predecessors!
  br label %183

183:                                              ; preds = %182
  br label %184

184:                                              ; preds = %183, %143
  br label %196

185:                                              ; preds = %138
  %186 = load ptr, ptr %9, align 8
  %187 = getelementptr inbounds %struct.H5A_t, ptr %186, i32 0, i32 4
  %188 = load ptr, ptr %187, align 8
  %189 = getelementptr inbounds %struct.H5A_shared_t, ptr %188, i32 0, i32 7
  %190 = load ptr, ptr %189, align 8
  %191 = load ptr, ptr %9, align 8
  %192 = getelementptr inbounds %struct.H5A_t, ptr %191, i32 0, i32 4
  %193 = load ptr, ptr %192, align 8
  %194 = getelementptr inbounds %struct.H5A_shared_t, ptr %193, i32 0, i32 8
  %195 = load i64, ptr %194, align 8
  call void @llvm.memset.p0.i64(ptr align 1 %190, i8 0, i64 %195, i1 false)
  br label %196

196:                                              ; preds = %185, %184
  br label %197

197:                                              ; preds = %196, %130, %123
  br label %198

198:                                              ; preds = %197, %181, %120, %96, %65
  %199 = load i32, ptr %13, align 4
  ret i32 %199
}