; Function Attrs: nounwind uwtable
define range(i32 -1, 1) i32 @H5A__attr_post_copy_file(ptr nocapture noundef readonly %0, ptr nocapture noundef readonly %1, ptr nocapture noundef readonly %2, ptr nocapture noundef readonly %3, ptr noundef %4) local_unnamed_addr #0 {
  %6 = load ptr, ptr %0, align 8
  %7 = load ptr, ptr %2, align 8
  %8 = getelementptr inbounds i8, ptr %1, i64 96
  %9 = load ptr, ptr %8, align 8
  %10 = getelementptr inbounds i8, ptr %9, i64 24
  %11 = load ptr, ptr %10, align 8
  %12 = tail call i32 @H5T_is_named(ptr noundef %11) #13
  %.not = icmp eq i32 %12, 0
  br i1 %.not, label %35, label %13

13:                                               ; preds = %5
  %14 = load ptr, ptr %8, align 8
  %15 = getelementptr inbounds i8, ptr %14, i64 24
  %16 = load ptr, ptr %15, align 8
  %17 = tail call ptr @H5T_oloc(ptr noundef %16) #13
  %18 = getelementptr inbounds i8, ptr %3, i64 96
  %19 = load ptr, ptr %18, align 8
  %20 = getelementptr inbounds i8, ptr %19, i64 24
  %21 = load ptr, ptr %20, align 8
  %22 = tail call ptr @H5T_oloc(ptr noundef %21) #13
  %23 = tail call i32 @H5O_loc_reset(ptr noundef %22) #13
  store ptr %7, ptr %22, align 8
  %24 = tail call i32 @H5O_copy_header_map(ptr noundef %17, ptr noundef nonnull %22, ptr noundef %4, i1 noundef zeroext false, ptr noundef null, ptr noundef null) #13
  %25 = icmp slt i32 %24, 0
  br i1 %25, label %26, label %30

26:                                               ; preds = %13
  %27 = load i64, ptr @H5E_OHDR_g, align 8
  %28 = load i64, ptr @H5E_CANTCOPY_g, align 8
  %29 = tail call i32 (ptr, ptr, i32, i64, i64, ptr, ...) @H5E_printf_stack(ptr noundef nonnull @.str.3, ptr noundef nonnull @__func__.H5A__attr_post_copy_file, i32 noundef 2341, i64 noundef %27, i64 noundef %28, ptr noundef nonnull @.str.88) #13
  br label %92

30:                                               ; preds = %13
  %31 = load ptr, ptr %18, align 8
  %32 = getelementptr inbounds i8, ptr %31, i64 24
  %33 = load ptr, ptr %32, align 8
  %34 = tail call i32 @H5T_update_shared(ptr noundef %33) #13
  br label %35

35:                                               ; preds = %30, %5
  %36 = getelementptr inbounds i8, ptr %3, i64 96
  %37 = load ptr, ptr %36, align 8
  %38 = getelementptr inbounds i8, ptr %37, i64 24
  %39 = load ptr, ptr %38, align 8
  %40 = tail call i32 @H5SM_try_share(ptr noundef %7, ptr noundef null, i32 noundef 2, i32 noundef 3, ptr noundef %39, ptr noundef null) #13
  %41 = icmp slt i32 %40, 0
  br i1 %41, label %42, label %46

42:                                               ; preds = %35
  %43 = load i64, ptr @H5E_OHDR_g, align 8
  %44 = load i64, ptr @H5E_WRITEERROR_g, align 8
  %45 = tail call i32 (ptr, ptr, i32, i64, i64, ptr, ...) @H5E_printf_stack(ptr noundef nonnull @.str.3, ptr noundef nonnull @__func__.H5A__attr_post_copy_file, i32 noundef 2351, i64 noundef %43, i64 noundef %44, ptr noundef nonnull @.str.75) #13
  br label %92

46:                                               ; preds = %35
  %47 = load ptr, ptr %36, align 8
  %48 = getelementptr inbounds i8, ptr %47, i64 40
  %49 = load ptr, ptr %48, align 8
  %50 = tail call i32 @H5SM_try_share(ptr noundef %7, ptr noundef null, i32 noundef 2, i32 noundef 1, ptr noundef %49, ptr noundef null) #13
  %51 = icmp slt i32 %50, 0
  br i1 %51, label %52, label %56

52:                                               ; preds = %46
  %53 = load i64, ptr @H5E_OHDR_g, align 8
  %54 = load i64, ptr @H5E_WRITEERROR_g, align 8
  %55 = tail call i32 (ptr, ptr, i32, i64, i64, ptr, ...) @H5E_printf_stack(ptr noundef nonnull @.str.3, ptr noundef nonnull @__func__.H5A__attr_post_copy_file, i32 noundef 2353, i64 noundef %53, i64 noundef %54, ptr noundef nonnull @.str.76) #13
  br label %92

56:                                               ; preds = %46
  %57 = load ptr, ptr %36, align 8
  %58 = getelementptr inbounds i8, ptr %57, i64 56
  %59 = load ptr, ptr %58, align 8
  %.not32 = icmp eq ptr %59, null
  br i1 %.not32, label %92, label %60

60:                                               ; preds = %56
  %61 = getelementptr inbounds i8, ptr %57, i64 24
  %62 = load ptr, ptr %61, align 8
  %63 = tail call i32 @H5T_get_class(ptr noundef %62, i32 noundef 0) #13
  %64 = icmp eq i32 %63, 7
  br i1 %64, label %65, label %92

65:                                               ; preds = %60
  %66 = getelementptr inbounds i8, ptr %4, i64 3
  %67 = load i8, ptr %66, align 1
  %68 = trunc i8 %67 to i1
  br i1 %68, label %69, label %86

69:                                               ; preds = %65
  %70 = load ptr, ptr %8, align 8
  %71 = getelementptr inbounds i8, ptr %70, i64 24
  %72 = load ptr, ptr %71, align 8
  %73 = getelementptr inbounds i8, ptr %70, i64 56
  %74 = load ptr, ptr %73, align 8
  %75 = getelementptr inbounds i8, ptr %70, i64 64
  %76 = load i64, ptr %75, align 8
  %77 = load ptr, ptr %36, align 8
  %78 = getelementptr inbounds i8, ptr %77, i64 56
  %79 = load ptr, ptr %78, align 8
  %80 = tail call i32 @H5O_copy_expand_ref(ptr noundef %6, ptr noundef %72, ptr noundef %74, i64 noundef %76, ptr noundef %7, ptr noundef %79, ptr noundef nonnull %4) #13
  %81 = icmp slt i32 %80, 0
  br i1 %81, label %82, label %92

82:                                               ; preds = %69
  %83 = load i64, ptr @H5E_ATTR_g, align 8
  %84 = load i64, ptr @H5E_CANTCOPY_g, align 8
  %85 = tail call i32 (ptr, ptr, i32, i64, i64, ptr, ...) @H5E_printf_stack(ptr noundef nonnull @.str.3, ptr noundef nonnull @__func__.H5A__attr_post_copy_file, i32 noundef 2370, i64 noundef %83, i64 noundef %84, ptr noundef nonnull @.str.89) #13
  br label %92

86:                                               ; preds = %65
  %87 = load ptr, ptr %36, align 8
  %88 = getelementptr inbounds i8, ptr %87, i64 56
  %89 = load ptr, ptr %88, align 8
  %90 = getelementptr inbounds i8, ptr %87, i64 64
  %91 = load i64, ptr %90, align 8
  tail call void @llvm.memset.p0.i64(ptr align 1 %89, i8 0, i64 %91, i1 false)
  br label %92

92:                                               ; preds = %56, %60, %69, %86, %82, %52, %42, %26
  %.0 = phi i32 [ -1, %26 ], [ -1, %42 ], [ -1, %52 ], [ -1, %82 ], [ 0, %69 ], [ 0, %86 ], [ 0, %60 ], [ 0, %56 ]
  ret i32 %.0
}